(lp0
(imeme_scraper.spiders.Meme
Meme
p1
(dp2
S'top_text'
p3
(lp4
Vfuck
p5
aVyeah
p6
asS'top_text_raw'
p7
Vfuck yeah
p8
sS'bottom_text_raw'
p9
Vnot the father
p10
sS'meme_type'
p11
S''
p12
sS'all_text'
p13
(lp14
g5
ag6
aVnot
p15
aVthe
p16
aVfather
p17
asS'bottom_text'
p18
(lp19
g15
ag16
ag17
asba(imeme_scraper.spiders.Meme
Meme
p20
(dp21
g3
(lp22
Vsaw
p23
aVparents
p24
aVwrestling
p25
asg7
Vsaw parents wrestling
p26
sg9
Vdad's winning
p27
sg11
g12
sg13
(lp28
g23
ag24
ag25
aVdad
p29
aV's
p30
aVwinning
p31
asg18
(lp32
g29
ag30
ag31
asba(imeme_scraper.spiders.Meme
Meme
p33
(dp34
g3
(lp35
Vdig
p36
aVin
p37
aVcereal
p38
aVbox
p39
asg7
Vdig in cereal box
p40
sg9
Vtwo prizes
p41
sg11
g12
sg13
(lp42
g36
ag37
ag38
ag39
aVtwo
p43
aVprizes
p44
asg18
(lp45
g43
ag44
asba(imeme_scraper.spiders.Meme
Meme
p46
(dp47
g3
(lp48
Vget
p49
aVfries
p50
aVat
p51
aVburger
p52
aVking
p53
asg7
Vget fries at burger king
p54
sg9
Vfind onion ring
p55
sg11
g12
sg13
(lp56
g49
ag50
ag51
ag52
ag53
aVfind
p57
aVonion
p58
aVring
p59
asg18
(lp60
g57
ag58
ag59
asba(imeme_scraper.spiders.Meme
Meme
p61
(dp62
g3
(lp63
Veats
p64
aVpork
p65
asg7
Veats pork
p66
sg9
Vshits sausage
p67
sg11
g12
sg13
(lp68
g64
ag65
aVshits
p69
aVsausage
p70
asg18
(lp71
g69
ag70
asba(imeme_scraper.spiders.Meme
Meme
p72
(dp73
g3
(lp74
Vfuck
p75
aVyeah
p76
asg7
Vfuck yeah
p77
sg9
Vfirst boner
p78
sg11
g12
sg13
(lp79
g75
ag76
aVfirst
p80
aVboner
p81
asg18
(lp82
g80
ag81
asba(imeme_scraper.spiders.Meme
Meme
p83
(dp84
g3
(lp85
Vdid
p86
aVa
p87
aVwheelie
p88
asg7
Vdid a wheelie
p89
sg9
Von a unicycle
p90
sg11
g12
sg13
(lp91
g86
ag87
ag88
aVon
p92
ag87
aVunicycle
p93
asg18
(lp94
g92
ag87
ag93
asba(imeme_scraper.spiders.Meme
Meme
p95
(dp96
g3
(lp97
Vsucess
p98
aVkid
p99
asg7
Vsucess kid
p100
sg9
Vis successful
p101
sg11
g12
sg13
(lp102
g98
ag99
aVis
p103
aVsuccessful
p104
asg18
(lp105
g103
ag104
asba(imeme_scraper.spiders.Meme
Meme
p106
(dp107
g3
(lp108
Vshe
p109
aVorders
p110
aVlobster
p111
asg7
Vshe orders lobster
p112
sg9
Vthey're out
p113
sg11
g12
sg13
(lp114
g109
ag110
ag111
aVthey
p115
aV're
p116
aVout
p117
asg18
(lp118
g115
ag116
ag117
asba(imeme_scraper.spiders.Meme
Meme
p119
(dp120
g3
(lp121
Vfuck
p122
aVyeah
p123
asg7
Vfuck yeah
p124
sg9
Vcharmeleon evolved into charizard
p125
sg11
g12
sg13
(lp126
g122
ag123
aVcharmeleon
p127
aVevolved
p128
aVinto
p129
aVcharizard
p130
asg18
(lp131
g127
ag128
ag129
ag130
asba(imeme_scraper.spiders.Meme
Meme
p132
(dp133
g3
(lp134
Vfuck
p135
aVyeah
p136
asg7
Vfuck yeah
p137
sg9
Vim caucasion
p138
sg11
g12
sg13
(lp139
g135
ag136
aVim
p140
aVcaucasion
p141
asg18
(lp142
g140
ag141
asba(imeme_scraper.spiders.Meme
Meme
p143
(dp144
g3
(lp145
V2
p146
aVhotdogs
p147
aVleft
p148
asg7
V2 hotdogs left
p149
sg9
V2 buns left
p150
sg11
g12
sg13
(lp151
g146
ag147
ag148
ag146
aVbuns
p152
aVleft
p153
asg18
(lp154
g146
ag152
ag153
asba(imeme_scraper.spiders.Meme
Meme
p155
(dp156
g3
(lp157
Vfriday
p158
asg7
Vfriday
p159
sg9
Vback seat
p160
sg11
g12
sg13
(lp161
g158
aVback
p162
aVseat
p163
asg18
(lp164
g162
ag163
asba(imeme_scraper.spiders.Meme
Meme
p165
(dp166
g3
(lp167
Vwalk
p168
aVin
p169
aVwild
p170
aVgrass
p171
asg7
Vwalk in wild grass
p172
sg9
Vfind shiny pokemon
p173
sg11
g12
sg13
(lp174
g168
ag169
ag170
ag171
aVfind
p175
aVshiny
p176
aVpokemon
p177
asg18
(lp178
g175
ag176
ag177
asba(imeme_scraper.spiders.Meme
Meme
p179
(dp180
g3
(lp181
Vboom
p182
aV!
p183
asg7
Vboom!
p184
sg9
Vgoes the dynamite
p185
sg11
g12
sg13
(lp186
g182
ag183
aVgoes
p187
aVthe
p188
aVdynamite
p189
asg18
(lp190
g187
ag188
ag189
asba(imeme_scraper.spiders.Meme
Meme
p191
(dp192
g3
(lp193
Vjapan
p194
aVearthquake
p195
asg7
Vjapan earthquake
p196
sg9
V10,000 dead
p197
sg11
g12
sg13
(lp198
g194
ag195
aV10,000
p199
aVdead
p200
asg18
(lp201
g199
ag200
asba(imeme_scraper.spiders.Meme
Meme
p202
(dp203
g3
(lp204
Vgets
p205
ag87
aVbig
p206
aVmac
p207
asg7
Vgets a big mac
p208
sg9
Vat burger king
p209
sg11
g12
sg13
(lp210
g205
ag87
ag206
ag207
aVat
p211
aVburger
p212
aVking
p213
asg18
(lp214
g211
ag212
ag213
asba(imeme_scraper.spiders.Meme
Meme
p215
(dp216
g3
(lp217
Veat
p218
aVcoins
p219
aVall
p220
aVmorning
p221
asg7
Veat coins all morning
p222
sg9
Vshit was so cash
p223
sg11
g12
sg13
(lp224
g218
ag219
ag220
ag221
aVshit
p225
aVwas
p226
aVso
p227
aVcash
p228
asg18
(lp229
g225
ag226
ag227
ag228
asba(imeme_scraper.spiders.Meme
Meme
p230
(dp231
g3
(lp232
Vboom
p233
ag183
asg7
Vboom!
p234
sg9
Vdelivered the win!
p235
sg11
g12
sg13
(lp236
g233
ag183
aVdelivered
p237
aVthe
p238
aVwin
p239
ag183
asg18
(lp240
g237
ag238
ag239
ag183
asba(imeme_scraper.spiders.Meme
Meme
p241
(dp242
g3
(lp243
Vtell
p244
aVmom
p245
aVto
p246
aVstfu
p247
asg7
Vtell mom to stfu
p248
sg9
Vshe does
p249
sg11
g12
sg13
(lp250
g244
ag245
ag246
ag247
aVshe
p251
aVdoes
p252
asg18
(lp253
g251
ag252
asba(imeme_scraper.spiders.Meme
Meme
p254
(dp255
g3
(lp256
Vgo
p257
aVday
p258
aVwithout
p259
aVpooping
p260
aVpants
p261
aV.
p262
asg7
Vgo day without pooping pants.
p263
sg9
Vfuck yeah.
p264
sg11
g12
sg13
(lp265
g257
ag258
ag259
ag260
ag261
ag262
aVfuck
p266
aVyeah
p267
ag262
asg18
(lp268
g266
ag267
ag262
asba(imeme_scraper.spiders.Meme
Meme
p269
(dp270
g3
(lp271
Vpenis
p272
asg7
Vpenis
p273
sg9
Vin a vagina
p274
sg11
g12
sg13
(lp275
g272
aVin
p276
ag87
aVvagina
p277
asg18
(lp278
g276
ag87
ag277
asba(imeme_scraper.spiders.Meme
Meme
p279
(dp280
g3
(lp281
Vshit
p282
aVmyself
p283
asg7
Vshit myself
p284
sg9
Vsomeone else changes diaper
p285
sg11
g12
sg13
(lp286
g282
ag283
aVsomeone
p287
aVelse
p288
aVchanges
p289
aVdiaper
p290
asg18
(lp291
g287
ag288
ag289
ag290
asba(imeme_scraper.spiders.Meme
Meme
p292
(dp293
g3
(lp294
Vbox
p295
aVsaid
p296
aV10
p297
aVdonuts
p298
asg7
Vbox said 10 donuts
p299
sg9
Vgot eleven.
p300
sg11
g12
sg13
(lp301
g295
ag296
ag297
ag298
aVgot
p302
aVeleven
p303
ag262
asg18
(lp304
g302
ag303
ag262
asba(imeme_scraper.spiders.Meme
Meme
p305
(dp306
g3
(lp307
Vfuck
p308
aVyeah
p309
asg7
Vfuck yeah
p310
sg9
Vfirst headshot
p311
sg11
g12
sg13
(lp312
g308
ag309
aVfirst
p313
aVheadshot
p314
asg18
(lp315
g313
ag314
asba(imeme_scraper.spiders.Meme
Meme
p316
(dp317
g3
(lp318
Veven
p319
aVshoryuken
p320
asg7
Veven shoryuken
p321
sg9
Vain't got nothin'.
p322
sg11
g12
sg13
(lp323
g319
ag320
aVai
p324
aVn't
p325
aVgot
p326
aVnothin
p327
aV'
p328
ag262
asg18
(lp329
g324
ag325
ag326
ag327
ag328
ag262
asba(imeme_scraper.spiders.Meme
Meme
p330
(dp331
g3
(lp332
Vosama
p333
aVwas
p334
aVkilled
p335
asg7
Vosama was killed
p336
sg9
Vwith this fist
p337
sg11
g12
sg13
(lp338
g333
ag334
ag335
aVwith
p339
aVthis
p340
aVfist
p341
asg18
(lp342
g339
ag340
ag341
asba(imeme_scraper.spiders.Meme
Meme
p343
(dp344
g3
(lp345
Vyeeeah
p346
asg7
Vyeeeah
p347
sg9
Vdlivered the win!
p348
sg11
g12
sg13
(lp349
g346
aVdlivered
p350
aVthe
p351
aVwin
p352
ag183
asg18
(lp353
g350
ag351
ag352
ag183
asba(imeme_scraper.spiders.Meme
Meme
p354
(dp355
g3
(lp356
Vpick
p357
aVup
p358
aVhooker
p359
aVin
p360
aVthailand
p361
asg7
Vpick up hooker in thailand
p362
sg9
Vno penis
p363
sg11
g12
sg13
(lp364
g357
ag358
ag359
ag360
ag361
aVno
p365
aVpenis
p366
asg18
(lp367
g365
ag366
asba(imeme_scraper.spiders.Meme
Meme
p368
(dp369
g3
(lp370
Vplay
p371
aVlike
p372
aVshit
p373
asg7
Vplay like shit
p374
sg9
Vfinish in top of group
p375
sg11
g12
sg13
(lp376
g371
ag372
ag373
aVfinish
p377
aVin
p378
aVtop
p379
aVof
p380
aVgroup
p381
asg18
(lp382
g377
ag378
ag379
ag380
ag381
asba(imeme_scraper.spiders.Meme
Meme
p383
(dp384
g3
(lp385
Vincursion
p386
aVgaming
p387
aV10th
p388
aVplace
p389
aVesea
p390
aVim
p391
aVseason
p392
aV8
p393
asg7
Vincursion gaming 10th place esea im season 8
p394
sg9
Vbeat ex invite team first round main
p395
sg11
g12
sg13
(lp396
g386
ag387
ag388
ag389
ag390
ag391
ag392
ag393
aVbeat
p397
aVex
p398
aVinvite
p399
aVteam
p400
aVfirst
p401
aVround
p402
aVmain
p403
asg18
(lp404
g397
ag398
ag399
ag400
ag401
ag402
ag403
asba(imeme_scraper.spiders.Meme
Meme
p405
(dp406
g3
(lp407
Vguy
p408
aVin
p409
aVfront
p410
aVof
p411
aVme
p412
aVwalks
p413
aVinto
p414
aVhorse
p415
aVcrap
p416
asg7
Vguy in front of me walks into horse crap
p417
sg9
Vi walk into gum then accidently on 5dollar bill
p418
sg11
g12
sg13
(lp419
g408
ag409
ag410
ag411
ag412
ag413
ag414
ag415
ag416
aVi
p420
aVwalk
p421
aVinto
p422
aVgum
p423
aVthen
p424
aVaccidently
p425
aVon
p426
aV5dollar
p427
aVbill
p428
asg18
(lp429
g420
ag421
ag422
ag423
ag424
ag425
ag426
ag427
ag428
asba(imeme_scraper.spiders.Meme
Meme
p430
(dp431
g3
(lp432
Vfuck
p433
aVthe
p434
asg7
Vfuck the
p435
sg9
Vpo-lice!
p436
sg11
g12
sg13
(lp437
g433
ag434
aVpo-lice
p438
ag183
asg18
(lp439
g438
ag183
asba(imeme_scraper.spiders.Meme
Meme
p440
(dp441
g3
(lp442
Vset
p443
aVhusband
p444
aV's
p445
aVringtone
p446
aVto
p447
aV``
p448
aVfriday
p449
aV''
p450
aVby
p451
aVrebecca
p452
aVblack
p453
asg7
Vset husband's ringtone to "friday" by  rebecca black
p454
sg9
Vcall 20 times a day
p455
sg11
g12
sg13
(lp456
g443
ag444
ag445
ag446
ag447
ag448
ag449
ag450
ag451
ag452
ag453
aVcall
p457
aV20
p458
aVtimes
p459
ag87
aVday
p460
asg18
(lp461
g457
ag458
ag459
ag87
ag460
asba(imeme_scraper.spiders.Meme
Meme
p462
(dp463
g3
(lp464
Vfail
p465
aVnow
p466
asg7
Vfail now
p467
sg9
Vdo it again in august
p468
sg11
g12
sg13
(lp469
g465
ag466
aVdo
p470
aVit
p471
aVagain
p472
aVin
p473
aVaugust
p474
asg18
(lp475
g470
ag471
ag472
ag473
ag474
asba(imeme_scraper.spiders.Meme
Meme
p476
(dp477
g3
(lp478
Vroll
p479
aVoutta
p480
aVbed
p481
asg7
Vroll outta bed
p482
sg9
Vturn capslock on
p483
sg11
g12
sg13
(lp484
g479
ag480
ag481
aVturn
p485
aVcapslock
p486
aVon
p487
asg18
(lp488
g485
ag486
ag487
asba(imeme_scraper.spiders.Meme
Meme
p489
(dp490
g3
(lp491
Vcar
p492
aVgot
p493
aVegged
p494
aV...
p495
asg7
Vcar got egged...
p496
sg9
V...made breakfast.
p497
sg11
g12
sg13
(lp498
g492
ag493
ag494
ag495
aV...
p499
aVmade
p500
aVbreakfast
p501
ag262
asg18
(lp502
g499
ag500
ag501
ag262
asba(imeme_scraper.spiders.Meme
Meme
p503
(dp504
g3
(lp505
Vcomplimenti
p506
aVannalia
p507
ag183
ag183
ag183
asg7
Vcomplimenti annalia!!!
p508
sg9
Vce l'hai fatta!!!
p509
sg11
g12
sg13
(lp510
g506
ag507
ag183
ag183
ag183
aVce
p511
aVl'hai
p512
aVfatta
p513
ag183
ag183
ag183
asg18
(lp514
g511
ag512
ag513
ag183
ag183
ag183
asba(imeme_scraper.spiders.Meme
Meme
p515
(dp516
g3
(lp517
g420
aVjust
p518
aVsaved
p519
aVhundreds
p520
aVof
p521
aVdollars
p522
asg7
Vi just saved hundreds of dollars
p523
sg9
Vby switching to geico
p524
sg11
g12
sg13
(lp525
g420
ag518
ag519
ag520
ag521
ag522
aVby
p526
aVswitching
p527
aVto
p528
aVgeico
p529
asg18
(lp530
g526
ag527
ag528
ag529
asba(imeme_scraper.spiders.Meme
Meme
p531
(dp532
g3
(lp533
Vhear
p534
aVthumps
p535
aVfrom
p536
aVparents
p537
aVroom
p538
ag262
asg7
Vhear thumps from parents room.
p539
sg9
Vplace bets
p540
sg11
g12
sg13
(lp541
g534
ag535
ag536
ag537
ag538
ag262
aVplace
p542
aVbets
p543
asg18
(lp544
g542
ag543
asba(imeme_scraper.spiders.Meme
Meme
p545
(dp546
g3
(lp547
Vmutter
p548
aVhat
p549
aVgeburtstag
p550
asg7
Vmutter hat geburtstag
p551
sg9
Vdas morgige essen wird ein festschmaus
p552
sg11
g12
sg13
(lp553
g548
ag549
ag550
aVdas
p554
aVmorgige
p555
aVessen
p556
aVwird
p557
aVein
p558
aVfestschmaus
p559
asg18
(lp560
g554
ag555
ag556
ag557
ag558
ag559
asba(imeme_scraper.spiders.Meme
Meme
p561
(dp562
g3
(lp563
Vone
p564
aVof
p565
aVthese
p566
aVdays
p567
aV...
p568
asg7
Vone of these days...
p569
sg9
Vi will get you back for this
p570
sg11
g12
sg13
(lp571
g564
ag565
ag566
ag567
ag568
ag420
aVwill
p572
aVget
p573
aVyou
p574
aVback
p575
aVfor
p576
aVthis
p577
asg18
(lp578
g420
ag572
ag573
ag574
ag575
ag576
ag577
asba(imeme_scraper.spiders.Meme
Meme
p579
(dp580
g3
(lp581
Vjust
p582
aVsharted
p583
asg7
Vjust sharted
p584
sg9
Vin the shower
p585
sg11
g12
sg13
(lp586
g582
ag583
aVin
p587
aVthe
p588
aVshower
p589
asg18
(lp590
g587
ag588
ag589
asba(imeme_scraper.spiders.Meme
Meme
p591
(dp592
g3
(lp593
Vmade
p594
ag87
aVbaby
p595
asg7
Vmade a baby
p596
sg9
Vby my self
p597
sg11
g12
sg13
(lp598
g594
ag87
ag595
aVby
p599
aVmy
p600
aVself
p601
asg18
(lp602
g599
ag600
ag601
asba(imeme_scraper.spiders.Meme
Meme
p603
(dp604
g3
(lp605
Vjust
p606
aVgot
p607
aVfed
p608
asg7
Vjust got fed
p609
sg9
Vwith boobies!
p610
sg11
g12
sg13
(lp611
g606
ag607
ag608
aVwith
p612
aVboobies
p613
ag183
asg18
(lp614
g612
ag613
ag183
asba(imeme_scraper.spiders.Meme
Meme
p615
(dp616
g3
(lp617
Vrestoring
p618
aVraid
p619
aV0
p620
aVfrom
p621
aVbackup
p622
aV...
p623
ag262
asg7
Vrestoring raid 0 from backup....
p624
sg9
Vbackup  disks fails :d
p625
sg11
g12
sg13
(lp626
g618
ag619
ag620
ag621
ag622
ag623
ag262
aVbackup
p627
aVdisks
p628
aVfails
p629
aV:
p630
aVd
p631
asg18
(lp632
g627
ag628
ag629
ag630
ag631
asba(imeme_scraper.spiders.Meme
Meme
p633
(dp634
g3
(lp635
Vback
p636
aVat
p637
aVwork
p638
asg7
Vback at work
p639
sg9
Vworking slower than special ed kids
p640
sg11
g12
sg13
(lp641
g636
ag637
ag638
aVworking
p642
aVslower
p643
aVthan
p644
aVspecial
p645
aVed
p646
aVkids
p647
asg18
(lp648
g642
ag643
ag644
ag645
ag646
ag647
asba(imeme_scraper.spiders.Meme
Meme
p649
(dp650
g3
(lp651
Vstay
p652
aVthe
p653
aVfuck
p654
aVout
p655
aVof
p656
aVmy
p657
aVbinders
p658
ag183
asg7
Vstay the fuck out of my binders!
p659
sg9
Vgo sit in your cubicle bitch!
p660
sg11
g12
sg13
(lp661
g652
ag653
ag654
ag655
ag656
ag657
ag658
ag183
aVgo
p662
aVsit
p663
aVin
p664
aVyour
p665
aVcubicle
p666
aVbitch
p667
ag183
asg18
(lp668
g662
ag663
ag664
ag665
ag666
ag667
ag183
asba(imeme_scraper.spiders.Meme
Meme
p669
(dp670
g3
(lp671
Vbien
p672
aVctm
p673
asg7
Vbien ctm
p674
sg9
Vestoy en el club!
p675
sg11
g12
sg13
(lp676
g672
ag673
aVestoy
p677
aVen
p678
aVel
p679
aVclub
p680
ag183
asg18
(lp681
g677
ag678
ag679
ag680
ag183
asba(imeme_scraper.spiders.Meme
Meme
p682
(dp683
g3
(lp684
Vneil
p685
aVpeart
p686
asg7
Vneil peart
p687
sg9
Vbest drummer ever
p688
sg11
g12
sg13
(lp689
g685
ag686
aVbest
p690
aVdrummer
p691
aVever
p692
asg18
(lp693
g690
ag691
ag692
asba(imeme_scraper.spiders.Meme
Meme
p694
(dp695
g3
(lp696
Vyou
p697
aVtell
p698
aVem
p699
aVchamp
p700
asg7
Vyou tell em champ
p701
sg9
Vs
p702
sg11
g12
sg13
(lp703
g697
ag698
ag699
ag700
ag702
asg18
(lp704
g702
asba(imeme_scraper.spiders.Meme
Meme
p705
(dp706
g3
(lp707
Vnatural
p708
aV20
p709
ag183
ag183
asg7
Vnatural 20!!
p710
sg9
Vbra removed
p711
sg11
g12
sg13
(lp712
g708
ag709
ag183
ag183
aVbra
p713
aVremoved
p714
asg18
(lp715
g713
ag714
asba(imeme_scraper.spiders.Meme
Meme
p716
(dp717
g3
(lp718
Vbitch
p719
aVoverfed
p720
aVlanaya
p721
aVthink
p722
aVshe
p723
aVcan
p724
aVgank
p725
aVme
p726
aV?
p727
asg7
Vbitch overfed lanaya think she can gank me?
p728
sg9
Vclutch ghot walk hell yeah nya!
p729
sg11
g12
sg13
(lp730
g719
ag720
ag721
ag722
ag723
ag724
ag725
ag726
ag727
aVclutch
p731
aVghot
p732
aVwalk
p733
aVhell
p734
aVyeah
p735
aVnya
p736
ag183
asg18
(lp737
g731
ag732
ag733
ag734
ag735
ag736
ag183
asba(imeme_scraper.spiders.Meme
Meme
p738
(dp739
g3
(lp740
Vbien
p741
aVctm
p742
ag183
ag183
ag183
ag183
ag183
asg7
Vbien ctm!!!!!
p743
sg9
Vme fue como la mierda en fisica
p744
sg11
g12
sg13
(lp745
g741
ag742
ag183
ag183
ag183
ag183
ag183
aVme
p746
aVfue
p747
aVcomo
p748
aVla
p749
aVmierda
p750
aVen
p751
aVfisica
p752
asg18
(lp753
g746
ag747
ag748
ag749
ag750
ag751
ag752
asba(imeme_scraper.spiders.Meme
Meme
p754
(dp755
g3
(lp756
Vin
p757
aVmy
p758
aVfist
p759
aVis
p760
aVyour
p761
aVhead
p762
asg7
Vin my fist is your head
p763
sg9
Vbitch
p764
sg11
g12
sg13
(lp765
g757
ag758
ag759
ag760
ag761
ag762
aVbitch
p766
asg18
(lp767
g766
asba(imeme_scraper.spiders.Meme
Meme
p768
(dp769
g3
(lp770
Vxm25
p771
aVgrenade
p772
aVlauncher
p773
asg7
Vxm25 grenade launcher
p774
sg9
Vfuck yeah!
p775
sg11
g12
sg13
(lp776
g771
ag772
ag773
aVfuck
p777
aVyeah
p778
ag183
asg18
(lp779
g777
ag778
ag183
asba(imeme_scraper.spiders.Meme
Meme
p780
(dp781
g3
(lp782
Vwin
p783
asg7
Vwin
p784
sg9
Vi delivered it
p785
sg11
g12
sg13
(lp786
g783
ag420
aVdelivered
p787
aVit
p788
asg18
(lp789
g420
ag787
ag788
asba(imeme_scraper.spiders.Meme
Meme
p790
(dp791
g3
(lp792
Vdrop
p793
aVthe
p794
aVsoap
p795
asg7
Vdrop the soap
p796
sg9
Vthe soap is tied to your wrist
p797
sg11
g12
sg13
(lp798
g793
ag794
ag795
aVthe
p799
aVsoap
p800
aVis
p801
aVtied
p802
aVto
p803
aVyour
p804
aVwrist
p805
asg18
(lp806
g799
ag800
ag801
ag802
ag803
ag804
ag805
asba(imeme_scraper.spiders.Meme
Meme
p807
(dp808
g3
(lp809
Vwe
p810
aVcan
p811
aVmake
p812
aVthem
p813
aVsheri
p814
asg7
Vwe can make them sheri
p815
sg9
Vyussssssssssssss
p816
sg11
g12
sg13
(lp817
g810
ag811
ag812
ag813
ag814
aVyussssssssssssss
p818
asg18
(lp819
g818
asba(imeme_scraper.spiders.Meme
Meme
p820
(dp821
g3
(lp822
Vhungover
p823
aVand
p824
aV3
p825
aVhours
p826
aVlate
p827
aVfor
p828
aVwork
p829
aV...
p830
asg7
Vhungover and 3 hours late for work...
p831
sg9
Vjambone!
p832
sg11
g12
sg13
(lp833
g823
ag824
ag825
ag826
ag827
ag828
ag829
ag830
aVjambone
p834
ag183
asg18
(lp835
g834
ag183
asba(imeme_scraper.spiders.Meme
Meme
p836
(dp837
g3
(lp838
g825
aVhours
p839
aVlate
p840
aVto
p841
aVwork
p842
aVstrut
p843
aVin
p844
aVwith
p845
aVglasses
p846
aVon
p847
aV...
p848
asg7
V3 hours late to work strut in with glasses on...
p849
sg9
Vjambone.
p850
sg11
g12
sg13
(lp851
g825
ag839
ag840
ag841
ag842
ag843
ag844
ag845
ag846
ag847
ag848
aVjambone
p852
ag262
asg18
(lp853
g852
ag262
asba(imeme_scraper.spiders.Meme
Meme
p854
(dp855
g3
(lp856
V11
p857
aVkillstreak
p858
ag183
asg7
V11 killstreak!
p859
sg9
Vac 130 biatches!
p860
sg11
g12
sg13
(lp861
g857
ag858
ag183
aVac
p862
aV130
p863
aVbiatches
p864
ag183
asg18
(lp865
g862
ag863
ag864
ag183
asba(imeme_scraper.spiders.Meme
Meme
p866
(dp867
g3
(lp868
Vwent
p869
aVwindow
p870
aVshopping
p871
aVtoday
p872
asg7
Vwent window shopping today
p873
sg9
Vdidn't buy anything
p874
sg11
g12
sg13
(lp875
g869
ag870
ag871
ag872
aVdid
p876
aVn't
p877
aVbuy
p878
aVanything
p879
asg18
(lp880
g876
ag877
ag878
ag879
asba(imeme_scraper.spiders.Meme
Meme
p881
(dp882
g3
(lp883
Vconcall
p884
asg7
Vconcall
p885
sg9
Vcancelled
p886
sg11
g12
sg13
(lp887
g884
aVcancelled
p888
asg18
(lp889
g888
asba(imeme_scraper.spiders.Meme
Meme
p890
(dp891
g3
(lp892
Vrhys
p893
aVthomas..
p894
asg7
Vrhys thomas..
p895
sg9
Vlets get those fukin downies..
p896
sg11
g12
sg13
(lp897
g893
ag894
aVlets
p898
aVget
p899
aVthose
p900
aVfukin
p901
aVdownies..
p902
asg18
(lp903
g898
ag899
ag900
ag901
ag902
asba(imeme_scraper.spiders.Meme
Meme
p904
(dp905
g3
(lp906
Vshutup
p907
aVand
p908
asg7
Vshutup and
p909
sg9
Vaccept tickets!
p910
sg11
g12
sg13
(lp911
g907
ag908
aVaccept
p912
aVtickets
p913
ag183
asg18
(lp914
g912
ag913
ag183
asba(imeme_scraper.spiders.Meme
Meme
p915
(dp916
g3
(lp917
Vit
p918
aV's
p919
aVraining
p920
asg7
Vit's raining
p921
sg9
Vdo it... at home!
p922
sg11
g12
sg13
(lp923
g918
ag919
ag920
aVdo
p924
aVit
p925
aV...
p926
aVat
p927
aVhome
p928
ag183
asg18
(lp929
g924
ag925
ag926
ag927
ag928
ag183
asba(imeme_scraper.spiders.Meme
Meme
p930
(dp931
g3
(lp932
Vninenta
p933
asg7
Vninenta
p934
sg9
Vpop pop
p935
sg11
g12
sg13
(lp936
g933
aVpop
p937
aVpop
p938
asg18
(lp939
g937
ag938
asba(imeme_scraper.spiders.Meme
Meme
p940
(dp941
g3
(lp942
Vbien
p943
aVctm
p944
asg7
Vbien ctm
p945
sg9
Vsuper street fighter iv para pc
p946
sg11
g12
sg13
(lp947
g943
ag944
aVsuper
p948
aVstreet
p949
aVfighter
p950
aViv
p951
aVpara
p952
aVpc
p953
asg18
(lp954
g948
ag949
ag950
ag951
ag952
ag953
asba(imeme_scraper.spiders.Meme
Meme
p955
(dp956
g3
(lp957
Vbacalaureat
p958
aV+
p959
aVadmitere
p960
asg7
Vbacalaureat + admitere
p961
sg9
Vfloare la ureche
p962
sg11
g12
sg13
(lp963
g958
ag959
ag960
aVfloare
p964
aVla
p965
aVureche
p966
asg18
(lp967
g964
ag965
ag966
asba(imeme_scraper.spiders.Meme
Meme
p968
(dp969
g3
(lp970
Veat
p971
aVindian
p972
aVfood
p973
asg7
Veat indian food
p974
sg9
Vregular bowel movement
p975
sg11
g12
sg13
(lp976
g971
ag972
ag973
aVregular
p977
aVbowel
p978
aVmovement
p979
asg18
(lp980
g977
ag978
ag979
asba(imeme_scraper.spiders.Meme
Meme
p981
(dp982
g3
(lp983
Vfuck
p984
aVyeah
p985
asg7
Vfuck yeah
p986
sg9
Vos la he colado hasta por debajo de las piernas
p987
sg11
g12
sg13
(lp988
g984
ag985
aVos
p989
aVla
p990
aVhe
p991
aVcolado
p992
aVhasta
p993
aVpor
p994
aVdebajo
p995
aVde
p996
aVlas
p997
aVpiernas
p998
asg18
(lp999
g989
ag990
ag991
ag992
ag993
ag994
ag995
ag996
ag997
ag998
asba(imeme_scraper.spiders.Meme
Meme
p1000
(dp1001
g3
(lp1002
Vfirst
p1003
aVline
p1004
asg7
Vfirst line
p1005
sg9
Vsecondline
p1006
sg11
g12
sg13
(lp1007
g1003
ag1004
aVsecondline
p1008
asg18
(lp1009
g1008
asba(imeme_scraper.spiders.Meme
Meme
p1010
(dp1011
g3
(lp1012
Vno
p1013
aVpractice
p1014
aV...
p1015
asg7
Vno practice...
p1016
sg9
Vno strats stolen
p1017
sg11
g12
sg13
(lp1018
g1013
ag1014
ag1015
aVno
p1019
aVstrats
p1020
aVstolen
p1021
asg18
(lp1022
g1019
ag1020
ag1021
asba(imeme_scraper.spiders.Meme
Meme
p1023
(dp1024
g3
(lp1025
V500
p1026
aVwords
p1027
aVrequired
p1028
asg7
V500 words required
p1029
sg9
Vgave 1,794
p1030
sg11
g12
sg13
(lp1031
g1026
ag1027
ag1028
aVgave
p1032
aV1,794
p1033
asg18
(lp1034
g1032
ag1033
asba(imeme_scraper.spiders.Meme
Meme
p1035
(dp1036
g3
(lp1037
Vfuck
p1038
aVyeah
p1039
asg7
Vfuck yeah
p1040
sg9
Vv3!!!
p1041
sg11
g12
sg13
(lp1042
g1038
ag1039
aVv3
p1043
ag183
ag183
ag183
asg18
(lp1044
g1043
ag183
ag183
ag183
asba(imeme_scraper.spiders.Meme
Meme
p1045
(dp1046
g3
(lp1047
Vfirst
p1048
aVline
p1049
asg7
Vfirst line
p1050
sg9
Vsecondline
p1051
sg11
g12
sg13
(lp1052
g1048
ag1049
aVsecondline
p1053
asg18
(lp1054
g1053
asba(imeme_scraper.spiders.Meme
Meme
p1055
(dp1056
g3
(lp1057
Vover
p1058
aV9000
p1059
aVdownloads
p1060
asg7
Vover 9000 downloads
p1061
sg9
Vmission accomplished
p1062
sg11
g12
sg13
(lp1063
g1058
ag1059
ag1060
aVmission
p1064
aVaccomplished
p1065
asg18
(lp1066
g1064
ag1065
asba(imeme_scraper.spiders.Meme
Meme
p1067
(dp1068
g3
(lp1069
Vsam
p1070
aVberry..
p1071
asg7
Vsam berry..
p1072
sg9
V..its time..
p1073
sg11
g12
sg13
(lp1074
g1070
ag1071
aV..its
p1075
aVtime..
p1076
asg18
(lp1077
g1075
ag1076
asba(imeme_scraper.spiders.Meme
Meme
p1078
(dp1079
g3
(lp1080
Vfuck
p1081
aVyeah
p1082
ag183
asg7
Vfuck yeah!
p1083
sg9
V2 birds, 1 stone
p1084
sg11
g12
sg13
(lp1085
g1081
ag1082
ag183
ag146
aVbirds
p1086
aV,
p1087
aV1
p1088
aVstone
p1089
asg18
(lp1090
g146
ag1086
ag1087
ag1088
ag1089
asba(imeme_scraper.spiders.Meme
Meme
p1091
(dp1092
g3
(lp1093
Vshae
p1094
aVjust
p1095
aVcalled
p1096
asg7
Vshae just called
p1097
sg9
Vwe're dumping autotask
p1098
sg11
g12
sg13
(lp1099
g1094
ag1095
ag1096
aVwe
p1100
aV're
p1101
aVdumping
p1102
aVautotask
p1103
asg18
(lp1104
g1100
ag1101
ag1102
ag1103
asba(imeme_scraper.spiders.Meme
Meme
p1105
(dp1106
g3
(lp1107
Vtravel
p1108
aVto
p1109
aVsalem
p1110
asg7
Vtravel to salem
p1111
sg9
Vnew gold grill
p1112
sg11
g12
sg13
(lp1113
g1108
ag1109
ag1110
aVnew
p1114
aVgold
p1115
aVgrill
p1116
asg18
(lp1117
g1114
ag1115
ag1116
asba(imeme_scraper.spiders.Meme
Meme
p1118
(dp1119
g3
(lp1120
Vfuck
p1121
aVyeah
p1122
asg7
Vfuck yeah
p1123
sg9
Vralph wiggum jr triumphs
p1124
sg11
g12
sg13
(lp1125
g1121
ag1122
aVralph
p1126
aVwiggum
p1127
aVjr
p1128
aVtriumphs
p1129
asg18
(lp1130
g1126
ag1127
ag1128
ag1129
asba(imeme_scraper.spiders.Meme
Meme
p1131
(dp1132
g3
(lp1133
Vdown
p1134
aV19
p1135
aVpoints
p1136
aVin
p1137
aV2nd
p1138
aVhalf
p1139
ag727
asg7
Vdown 19 points in 2nd half?
p1140
sg9
Vrelease the falcon!
p1141
sg11
g12
sg13
(lp1142
g1134
ag1135
ag1136
ag1137
ag1138
ag1139
ag727
aVrelease
p1143
aVthe
p1144
aVfalcon
p1145
ag183
asg18
(lp1146
g1143
ag1144
ag1145
ag183
asba(imeme_scraper.spiders.Meme
Meme
p1147
(dp1148
g3
(lp1149
Vfor
p1150
asg7
Vfor
p1151
sg9
Vsecondlinev
p1152
sg11
g12
sg13
(lp1153
g1150
aVsecondlinev
p1154
asg18
(lp1155
g1154
asba(imeme_scraper.spiders.Meme
Meme
p1156
(dp1157
g3
(lp1158
Vsettings
p1159
aVau
p1160
aVmax
p1161
ag87
aVbattlefield
p1162
ag825
asg7
Vsettings au max a battlefield 3
p1163
sg9
Vfuck yeah
p1164
sg11
g12
sg13
(lp1165
g1159
ag1160
ag1161
ag87
ag1162
ag825
aVfuck
p1166
aVyeah
p1167
asg18
(lp1168
g1166
ag1167
asba(imeme_scraper.spiders.Meme
Meme
p1169
(dp1170
g3
(lp1171
Vfirst
p1172
aVline
p1173
asg7
Vfirst line
p1174
sg9
Vsecondline
p1175
sg11
g12
sg13
(lp1176
g1172
ag1173
aVsecondline
p1177
asg18
(lp1178
g1177
asba(imeme_scraper.spiders.Meme
Meme
p1179
(dp1180
g3
(lp1181
Vmaligo
p1182
aVng
p1183
aV5
p1184
aVbeses
p1185
aVsa
p1186
aVisang
p1187
aVaraw
p1188
asg7
Vmaligo ng 5 beses sa isang araw
p1189
sg9
Vlose summer heat.
p1190
sg11
g12
sg13
(lp1191
g1182
ag1183
ag1184
ag1185
ag1186
ag1187
ag1188
aVlose
p1192
aVsummer
p1193
aVheat
p1194
ag262
asg18
(lp1195
g1192
ag1193
ag1194
ag262
asba(imeme_scraper.spiders.Meme
Meme
p1196
(dp1197
g3
(lp1198
Vaccidentally
p1199
aVlight
p1200
ag87
aVcigarette
p1201
aVon
p1202
aVstage
p1203
asg7
Vaccidentally light a cigarette on stage
p1204
sg9
Vcrowd thinks im badass
p1205
sg11
g12
sg13
(lp1206
g1199
ag1200
ag87
ag1201
ag1202
ag1203
aVcrowd
p1207
aVthinks
p1208
aVim
p1209
aVbadass
p1210
asg18
(lp1211
g1207
ag1208
ag1209
ag1210
asba(imeme_scraper.spiders.Meme
Meme
p1212
(dp1213
g3
(lp1214
Vdid
p1215
aVn't
p1216
aVget
p1217
aVday
p1218
aVoff
p1219
asg7
Vdidn't get day off
p1220
sg9
Vtake it anyway!!
p1221
sg11
g12
sg13
(lp1222
g1215
ag1216
ag1217
ag1218
ag1219
aVtake
p1223
aVit
p1224
aVanyway
p1225
ag183
ag183
asg18
(lp1226
g1223
ag1224
ag1225
ag183
ag183
asba(imeme_scraper.spiders.Meme
Meme
p1227
(dp1228
g3
(lp1229
Vjohno
p1230
aVknows
p1231
asg7
Vjohno knows
p1232
sg9
Vjohno is coming
p1233
sg11
g12
sg13
(lp1234
g1230
ag1231
aVjohno
p1235
aVis
p1236
aVcoming
p1237
asg18
(lp1238
g1235
ag1236
ag1237
asba(imeme_scraper.spiders.Meme
Meme
p1239
(dp1240
g3
(lp1241
Vtranlated
p1242
aVrecorded
p1243
aVstatement
p1244
asg7
Vtranlated recorded statement
p1245
sg9
Vtime to browse reddit
p1246
sg11
g12
sg13
(lp1247
g1242
ag1243
ag1244
aVtime
p1248
aVto
p1249
aVbrowse
p1250
aVreddit
p1251
asg18
(lp1252
g1248
ag1249
ag1250
ag1251
asba(imeme_scraper.spiders.Meme
Meme
p1253
(dp1254
g3
(lp1255
Vxm25
p1256
aVgrenade
p1257
aVlauncher
p1258
asg7
Vxm25 grenade launcher
p1259
sg9
Vf-u-c-k yeah!
p1260
sg11
g12
sg13
(lp1261
g1256
ag1257
ag1258
aVf-u-c-k
p1262
aVyeah
p1263
ag183
asg18
(lp1264
g1262
ag1263
ag183
asba(imeme_scraper.spiders.Meme
Meme
p1265
(dp1266
g3
(lp1267
Vmy
p1268
aVface
p1269
asg7
Vmy face
p1270
sg9
Vonce the new superior ep is released
p1271
sg11
g12
sg13
(lp1272
g1268
ag1269
aVonce
p1273
aVthe
p1274
aVnew
p1275
aVsuperior
p1276
aVep
p1277
aVis
p1278
aVreleased
p1279
asg18
(lp1280
g1273
ag1274
ag1275
ag1276
ag1277
ag1278
ag1279
asba(imeme_scraper.spiders.Meme
Meme
p1281
(dp1282
g3
(lp1283
Vwins
p1284
aVwhat
p1285
aVyou
p1286
aVask
p1287
ag727
asg7
Vwins what you ask?
p1288
sg9
Vmother*ucking internet bragging rights
p1289
sg11
g12
sg13
(lp1290
g1284
ag1285
ag1286
ag1287
ag727
aVmother*ucking
p1291
aVinternet
p1292
aVbragging
p1293
aVrights
p1294
asg18
(lp1295
g1291
ag1292
ag1293
ag1294
asba(imeme_scraper.spiders.Meme
Meme
p1296
(dp1297
g3
(lp1298
Vtake
p1299
aVher
p1300
aVanalvirginity
p1301
asg7
Vtake her analvirginity
p1302
sg9
Vget her hooked on analsex instantly
p1303
sg11
g12
sg13
(lp1304
g1299
ag1300
ag1301
aVget
p1305
aVher
p1306
aVhooked
p1307
aVon
p1308
aVanalsex
p1309
aVinstantly
p1310
asg18
(lp1311
g1305
ag1306
ag1307
ag1308
ag1309
ag1310
asba(imeme_scraper.spiders.Meme
Meme
p1312
(dp1313
g3
(lp1314
Vlast
p1315
aVfap
p1316
asg7
Vlast fap
p1317
sg9
Vtill november
p1318
sg11
g12
sg13
(lp1319
g1315
ag1316
aVtill
p1320
aVnovember
p1321
asg18
(lp1322
g1320
ag1321
asba(imeme_scraper.spiders.Meme
Meme
p1323
(dp1324
g3
(lp1325
Vballs
p1326
aVdropped
p1327
asg7
Vballs dropped
p1328
sg9
Vno hands
p1329
sg11
g12
sg13
(lp1330
g1326
ag1327
aVno
p1331
aVhands
p1332
asg18
(lp1333
g1331
ag1332
asba(imeme_scraper.spiders.Meme
Meme
p1334
(dp1335
g3
(lp1336
Vgtx580,8
p1337
aVgig
p1338
aVde
p1339
aVram
p1340
ag1087
aVi7
p1341
ag1087
aVbattelfield
p1342
ag825
asg7
Vgtx580,8 gig de ram,i7,battelfield 3
p1343
sg9
Vfuck yeah
p1344
sg11
g12
sg13
(lp1345
g1337
ag1338
ag1339
ag1340
ag1087
ag1341
ag1087
ag1342
ag825
aVfuck
p1346
aVyeah
p1347
asg18
(lp1348
g1346
ag1347
asba(imeme_scraper.spiders.Meme
Meme
p1349
(dp1350
g3
(lp1351
Vpay
p1352
aVfor
p1353
ag146
aVhours
p1354
aVof
p1355
aVbowling
p1356
asg7
Vpay for 2 hours of bowling
p1357
sg9
Vwin 30 free games
p1358
sg11
g12
sg13
(lp1359
g1352
ag1353
ag146
ag1354
ag1355
ag1356
aVwin
p1360
aV30
p1361
aVfree
p1362
aVgames
p1363
asg18
(lp1364
g1360
ag1361
ag1362
ag1363
asba(imeme_scraper.spiders.Meme
Meme
p1365
(dp1366
g3
(lp1367
V6
p1368
aVmonths
p1369
aVin
p1370
aVrem
p1371
asg7
V6 months in rem
p1372
sg9
Vno improvement note
p1373
sg11
g12
sg13
(lp1374
g1368
ag1369
ag1370
ag1371
aVno
p1375
aVimprovement
p1376
aVnote
p1377
asg18
(lp1378
g1375
ag1376
ag1377
asba(imeme_scraper.spiders.Meme
Meme
p1379
(dp1380
g3
(lp1381
Vdid
p1382
ag87
aVcard
p1383
aVfor
p1384
aVvictor
p1385
asg7
Vdid a card for victor
p1386
sg9
Vand he loved it
p1387
sg11
g12
sg13
(lp1388
g1382
ag87
ag1383
ag1384
ag1385
aVand
p1389
aVhe
p1390
aVloved
p1391
aVit
p1392
asg18
(lp1393
g1389
ag1390
ag1391
ag1392
asba(imeme_scraper.spiders.Meme
Meme
p1394
(dp1395
g3
(lp1396
Vafraid
p1397
aVto
p1398
aVlose
p1399
aVmatch
p1400
ag727
asg7
Vafraid to lose match?
p1401
sg9
Vcut power to city so you dont have to play
p1402
sg11
g12
sg13
(lp1403
g1397
ag1398
ag1399
ag1400
ag727
aVcut
p1404
aVpower
p1405
aVto
p1406
aVcity
p1407
aVso
p1408
aVyou
p1409
aVdont
p1410
aVhave
p1411
aVto
p1412
aVplay
p1413
asg18
(lp1414
g1404
ag1405
ag1406
ag1407
ag1408
ag1409
ag1410
ag1411
ag1412
ag1413
asba(imeme_scraper.spiders.Meme
Meme
p1415
(dp1416
g3
(lp1417
Vpresentation
p1418
aVfinished
p1419
asg7
Vpresentation finished
p1420
sg9
Vsuccess!
p1421
sg11
g12
sg13
(lp1422
g1418
ag1419
aVsuccess
p1423
ag183
asg18
(lp1424
g1423
ag183
asba(imeme_scraper.spiders.Meme
Meme
p1425
(dp1426
g3
(lp1427
Vfirst
p1428
aVword
p1429
asg7
Vfirst word
p1430
sg9
Vpushkin
p1431
sg11
g12
sg13
(lp1432
g1428
ag1429
aVpushkin
p1433
asg18
(lp1434
g1433
asba(imeme_scraper.spiders.Meme
Meme
p1435
(dp1436
g3
(lp1437
g393
aVpiece
p1438
aVchicken
p1439
aVnuggets
p1440
aVfrom
p1441
aVchik-fil-a
p1442
asg7
V8 piece chicken nuggets from chik-fil-a
p1443
sg9
Vsecondline
p1444
sg11
g12
sg13
(lp1445
g393
ag1438
ag1439
ag1440
ag1441
ag1442
aVsecondline
p1446
asg18
(lp1447
g1446
asba(imeme_scraper.spiders.Meme
Meme
p1448
(dp1449
g3
(lp1450
Vdeath
p1451
aVto
p1452
aVms
p1453
ag183
ag183
ag183
asg7
Vdeath to ms!!!
p1454
sg9
Vswitch to oss
p1455
sg11
g12
sg13
(lp1456
g1451
ag1452
ag1453
ag183
ag183
ag183
aVswitch
p1457
aVto
p1458
aVoss
p1459
asg18
(lp1460
g1457
ag1458
ag1459
asba(imeme_scraper.spiders.Meme
Meme
p1461
(dp1462
g3
(lp1463
Vcome
p1464
aVhome
p1465
aVon
p1466
aV15th
p1467
aVbirthday
p1468
asg7
Vcome home on 15th birthday
p1469
sg9
Vfind unicorn in bedroom
p1470
sg11
g12
sg13
(lp1471
g1464
ag1465
ag1466
ag1467
ag1468
aVfind
p1472
aVunicorn
p1473
aVin
p1474
aVbedroom
p1475
asg18
(lp1476
g1472
ag1473
ag1474
ag1475
asba(imeme_scraper.spiders.Meme
Meme
p1477
(dp1478
g3
(lp1479
Vgo
p1480
aVto
p1481
aVtequila
p1482
aVparty
p1483
asg7
Vgo to tequila party
p1484
sg9
Vthey have tacos too
p1485
sg11
g12
sg13
(lp1486
g1480
ag1481
ag1482
ag1483
aVthey
p1487
aVhave
p1488
aVtacos
p1489
aVtoo
p1490
asg18
(lp1491
g1487
ag1488
ag1489
ag1490
asba(imeme_scraper.spiders.Meme
Meme
p1492
(dp1493
g3
(lp1494
Vy
p1495
aVu
p1496
aVno
p1497
aVlike
p1498
aVmy
p1499
aVlinks
p1500
ag727
ag183
aV*posts
p1501
ag87
aVpantera
p1502
aVsong*
p1503
asg7
Vy u no like my links?! *posts a pantera song*
p1504
sg9
Vnow that's more like it
p1505
sg11
g12
sg13
(lp1506
g1495
ag1496
ag1497
ag1498
ag1499
ag1500
ag727
ag183
ag1501
ag87
ag1502
ag1503
aVnow
p1507
aVthat
p1508
aV's
p1509
aVmore
p1510
aVlike
p1511
aVit
p1512
asg18
(lp1513
g1507
ag1508
ag1509
ag1510
ag1511
ag1512
asba(imeme_scraper.spiders.Meme
Meme
p1514
(dp1515
g3
(lp1516
Vbroke
p1517
aVglass
p1518
aVat
p1519
aVzouk
p1520
asg7
Vbroke glass at zouk
p1521
sg9
Vno one found out!
p1522
sg11
g12
sg13
(lp1523
g1517
ag1518
ag1519
ag1520
aVno
p1524
aVone
p1525
aVfound
p1526
aVout
p1527
ag183
asg18
(lp1528
g1524
ag1525
ag1526
ag1527
ag183
asba.